; Function Attrs: mustprogress uwtable
define void @_ZN9grpc_core20Chttp2PingRatePolicyC2ERKNS_11ChannelArgsEb(ptr noundef nonnull writeonly align 8 captures(none) dereferenceable(24) initializes((0, 12), (16, 24)) %0, ptr noundef nonnull align 8 dereferenceable(8) %1, i1 noundef zeroext %2) unnamed_addr #3 align 2 personality ptr @__gxx_personality_v0 {
  br i1 %2, label %4, label %7

4:                                                ; preds = %3
  %5 = tail call i64 @_ZNK9grpc_core11ChannelArgs6GetIntESt17basic_string_viewIcSt11char_traitsIcEE(ptr noundef nonnull align 8 dereferenceable(8) %1, i64 33, ptr nonnull @.str)
  %.sroa.018.0.extract.trunc = trunc i64 %5 to i32
  %6 = and i64 %5, 4294967296
  %.not = icmp eq i64 %6, 0
  %.val2.i = load i32, ptr @_ZN9grpc_core12_GLOBAL__N_137g_default_max_pings_without_data_sentE, align 4
  %.0.i = select i1 %.not, i32 %.val2.i, i32 %.sroa.018.0.extract.trunc
  %.sroa.speculated23 = tail call i32 @llvm.smax.i32(i32 %.0.i, i32 0)
  br label %7

7:                                                ; preds = %3, %4
  %8 = phi i32 [ %.sroa.speculated23, %4 ], [ 0, %3 ]
  store i32 %8, ptr %0, align 8, !tbaa !3
  %9 = tail call i64 @_ZNK9grpc_core11ChannelArgs6GetIntESt17basic_string_viewIcSt11char_traitsIcEE(ptr noundef nonnull align 8 dereferenceable(8) %1, i64 29, ptr nonnull @.str.1)
  %10 = load atomic i64, ptr @_ZN9grpc_core15ExperimentFlags17experiment_flags_E monotonic, align 16
  %11 = and i64 %10, 65536
  %.not.i.i.i = icmp eq i64 %11, 0
  br i1 %.not.i.i.i, label %12, label %_ZN9grpc_core18IsMultipingEnabledEv.exit.thread

12:                                               ; preds = %7
  %.not4.i.i.i = icmp sgt i64 %10, -1
  br i1 %.not4.i.i.i, label %_ZN9grpc_core18IsMultipingEnabledEv.exit, label %_ZN9grpc_core18IsMultipingEnabledEv.exit.thread29

_ZN9grpc_core18IsMultipingEnabledEv.exit:         ; preds = %12
  %13 = tail call noundef zeroext i1 @_ZN9grpc_core15ExperimentFlags17LoadFlagsAndCheckEm(i64 noundef 16)
  br i1 %13, label %_ZN9grpc_core18IsMultipingEnabledEv.exit.thread, label %_ZN9grpc_core18IsMultipingEnabledEv.exit.thread29

_ZN9grpc_core18IsMultipingEnabledEv.exit.thread:  ; preds = %7, %_ZN9grpc_core18IsMultipingEnabledEv.exit
  br label %_ZN9grpc_core18IsMultipingEnabledEv.exit.thread29

_ZN9grpc_core18IsMultipingEnabledEv.exit.thread29: ; preds = %12, %_ZN9grpc_core18IsMultipingEnabledEv.exit, %_ZN9grpc_core18IsMultipingEnabledEv.exit.thread
  %14 = phi i32 [ 100, %_ZN9grpc_core18IsMultipingEnabledEv.exit.thread ], [ 1, %_ZN9grpc_core18IsMultipingEnabledEv.exit ], [ 1, %12 ]
  %.sroa.011.0.extract.trunc = trunc i64 %9 to i32
  %15 = getelementptr inbounds nuw i8, ptr %0, i64 4
  %16 = load i8, ptr getelementptr inbounds nuw (i8, ptr @_ZN9grpc_core12_GLOBAL__N_128g_default_max_inflight_pingsE, i64 4), align 4, !tbaa !10, !range !13, !noundef !14
  %17 = trunc nuw i8 %16 to i1
  %.val.i3 = load i32, ptr @_ZN9grpc_core12_GLOBAL__N_128g_default_max_inflight_pingsE, align 4
  %.0.i5 = select i1 %17, i32 %.val.i3, i32 %14
  %18 = and i64 %9, 4294967296
  %.not31 = icmp eq i64 %18, 0
  %.0.i8 = select i1 %.not31, i32 %.0.i5, i32 %.sroa.011.0.extract.trunc
  %.sroa.speculated = tail call i32 @llvm.smax.i32(i32 %.0.i8, i32 0)
  store i32 %.sroa.speculated, ptr %15, align 4, !tbaa !15
  %19 = getelementptr inbounds nuw i8, ptr %0, i64 8
  store i32 0, ptr %19, align 8, !tbaa !16
  %20 = getelementptr inbounds nuw i8, ptr %0, i64 16
  store i64 -9223372036854775808, ptr %20, align 8
  ret void
}